target datalayout = "e-m:e-p270:32:32-p271:32:32-p272:64:64-i64:64-i128:128-f80:128-n8:16:32:64-S128"
target triple = "x86_64-pc-linux-gnu"

%"class.std::__cxx11::basic_string" = type { %"struct.std::__cxx11::basic_string<char>::_Alloc_hider", i64, %union.anon }
%"struct.std::__cxx11::basic_string<char>::_Alloc_hider" = type { ptr }
%union.anon = type { i64, [8 x i8] }
%"class.dmlc::io::InputSplitBase" = type { %"class.dmlc::InputSplit", ptr, %"class.std::vector", i64, i64, i64, %"class.std::vector.0", ptr, i64, i64, %"struct.dmlc::io::InputSplitBase::Chunk", i64, i64, %"class.std::__cxx11::basic_string" }
%"class.dmlc::InputSplit" = type { ptr }
%"class.std::vector" = type { %"struct.std::_Vector_base" }
%"struct.std::_Vector_base" = type { %"struct.std::_Vector_base<unsigned long, std::allocator<unsigned long>>::_Vector_impl" }
%"struct.std::_Vector_base<unsigned long, std::allocator<unsigned long>>::_Vector_impl" = type { %"struct.std::_Vector_base<unsigned long, std::allocator<unsigned long>>::_Vector_impl_data" }
%"struct.std::_Vector_base<unsigned long, std::allocator<unsigned long>>::_Vector_impl_data" = type { ptr, ptr, ptr }
%"class.std::vector.0" = type { %"struct.std::_Vector_base.1" }
%"struct.std::_Vector_base.1" = type { %"struct.std::_Vector_base<dmlc::io::FileInfo, std::allocator<dmlc::io::FileInfo>>::_Vector_impl" }
%"struct.std::_Vector_base<dmlc::io::FileInfo, std::allocator<dmlc::io::FileInfo>>::_Vector_impl" = type { %"struct.std::_Vector_base<dmlc::io::FileInfo, std::allocator<dmlc::io::FileInfo>>::_Vector_impl_data" }
%"struct.std::_Vector_base<dmlc::io::FileInfo, std::allocator<dmlc::io::FileInfo>>::_Vector_impl_data" = type { ptr, ptr, ptr }
%"struct.dmlc::io::InputSplitBase::Chunk" = type { ptr, ptr, %"class.std::vector.5" }
%"class.std::vector.5" = type { %"struct.std::_Vector_base.6" }
%"struct.std::_Vector_base.6" = type { %"struct.std::_Vector_base<unsigned int, std::allocator<unsigned int>>::_Vector_impl" }
%"struct.std::_Vector_base<unsigned int, std::allocator<unsigned int>>::_Vector_impl" = type { %"struct.std::_Vector_base<unsigned int, std::allocator<unsigned int>>::_Vector_impl_data" }
%"struct.std::_Vector_base<unsigned int, std::allocator<unsigned int>>::_Vector_impl_data" = type { ptr, ptr, ptr }

; Function Attrs: mustprogress nounwind uwtable
define available_externally noundef ptr @_ZNKSt7__cxx1112basic_stringIcSt11char_traitsIcESaIcEE7_M_dataEv(ptr noundef nonnull align 8 dereferenceable(32) %0) #6 align 2 {
  %2 = alloca ptr, align 8
  store ptr %0, ptr %2, align 8, !tbaa !47
  %3 = load ptr, ptr %2, align 8
  %4 = getelementptr inbounds nuw %"class.std::__cxx11::basic_string", ptr %3, i32 0, i32 0
  %5 = getelementptr inbounds nuw %"struct.std::__cxx11::basic_string<char>::_Alloc_hider", ptr %4, i32 0, i32 0
  %6 = load ptr, ptr %5, align 8, !tbaa !203
  ret ptr %6
}

; Function Attrs: mustprogress nounwind uwtable
define available_externally noundef nonnull align 1 dereferenceable(1) ptr @_ZNSt7__cxx1112basic_stringIcSt11char_traitsIcESaIcEEixEm(ptr noundef nonnull align 8 dereferenceable(32) %0, i64 noundef %1) #6 align 2 {
  %3 = alloca ptr, align 8
  %4 = alloca i64, align 8
  store ptr %0, ptr %3, align 8, !tbaa !47
  store i64 %1, ptr %4, align 8, !tbaa !12
  %5 = load ptr, ptr %3, align 8
  br label %6

6:                                                ; preds = %2
  br label %7

7:                                                ; preds = %6
  %8 = call noundef ptr @_ZNKSt7__cxx1112basic_stringIcSt11char_traitsIcESaIcEE7_M_dataEv(ptr noundef nonnull align 8 dereferenceable(32) %5)
  %9 = load i64, ptr %4, align 8, !tbaa !12
  %10 = getelementptr inbounds nuw i8, ptr %8, i64 %9
  ret ptr %10
}

; Function Attrs: mustprogress uwtable
define available_externally void @_ZNSt7__cxx1112basic_stringIcSt11char_traitsIcESaIcEE6resizeEm(ptr noundef nonnull align 8 dereferenceable(32) %0, i64 noundef %1) #4 align 2 {
  %3 = alloca ptr, align 8
  %4 = alloca i64, align 8
  store ptr %0, ptr %3, align 8, !tbaa !47
  store i64 %1, ptr %4, align 8, !tbaa !12
  %5 = load ptr, ptr %3, align 8
  %6 = load i64, ptr %4, align 8, !tbaa !12
  call void @_ZNSt7__cxx1112basic_stringIcSt11char_traitsIcESaIcEE6resizeEmc(ptr noundef nonnull align 8 dereferenceable(32) %5, i64 noundef %6, i8 noundef signext 0)
  ret void
}

; Function Attrs: inlinehint mustprogress uwtable
define linkonce_odr noundef ptr @_ZN4dmlc8BeginPtrERNSt7__cxx1112basic_stringIcSt11char_traitsIcESaIcEEE(ptr noundef nonnull align 8 dereferenceable(32) %0) #7 comdat {
  %2 = alloca ptr, align 8
  %3 = alloca ptr, align 8
  store ptr %0, ptr %3, align 8, !tbaa !47
  %4 = load ptr, ptr %3, align 8, !tbaa !47
  %5 = call noundef i64 @_ZNKSt7__cxx1112basic_stringIcSt11char_traitsIcESaIcEE6lengthEv(ptr noundef nonnull align 8 dereferenceable(32) %4) #3
  %6 = icmp eq i64 %5, 0
  br i1 %6, label %7, label %8

7:                                                ; preds = %1
  store ptr null, ptr %2, align 8
  br label %11

8:                                                ; preds = %1
  %9 = load ptr, ptr %3, align 8, !tbaa !47
  %10 = call noundef nonnull align 1 dereferenceable(1) ptr @_ZNSt7__cxx1112basic_stringIcSt11char_traitsIcESaIcEEixEm(ptr noundef nonnull align 8 dereferenceable(32) %9, i64 noundef 0)
  store ptr %10, ptr %2, align 8
  br label %11

11:                                               ; preds = %8, %7
  %12 = load ptr, ptr %2, align 8
  ret ptr %12
}

; Function Attrs: mustprogress nounwind uwtable
define available_externally noundef i64 @_ZNKSt7__cxx1112basic_stringIcSt11char_traitsIcESaIcEE6lengthEv(ptr noundef nonnull align 8 dereferenceable(32) %0) #6 align 2 {
  %2 = alloca ptr, align 8
  store ptr %0, ptr %2, align 8, !tbaa !47
  %3 = load ptr, ptr %2, align 8
  %4 = getelementptr inbounds nuw %"class.std::__cxx11::basic_string", ptr %3, i32 0, i32 1
  %5 = load i64, ptr %4, align 8, !tbaa !90
  ret i64 %5
}

; Function Attrs: mustprogress uwtable
define noundef zeroext i1 @_ZN4dmlc2io14InputSplitBase9ReadChunkEPvPm(ptr noundef nonnull align 8 dereferenceable(200) %0, ptr noundef %1, ptr noundef %2) unnamed_addr #4 align 2 {
  %4 = alloca i1, align 1
  %5 = alloca ptr, align 8
  %6 = alloca ptr, align 8
  %7 = alloca ptr, align 8
  %8 = alloca i64, align 8
  %9 = alloca i32, align 4
  %10 = alloca i64, align 8
  %11 = alloca i64, align 8
  %12 = alloca ptr, align 8
  %13 = alloca ptr, align 8
  %14 = alloca ptr, align 8
  store ptr %0, ptr %5, align 8, !tbaa !3
  store ptr %1, ptr %6, align 8, !tbaa !132
  store ptr %2, ptr %7, align 8, !tbaa !77
  %15 = load ptr, ptr %5, align 8
  call void @llvm.lifetime.start.p0(i64 8, ptr %8) #3
  %16 = load ptr, ptr %7, align 8, !tbaa !77
  %17 = load i64, ptr %16, align 8, !tbaa !12
  store i64 %17, ptr %8, align 8, !tbaa !12
  %18 = load i64, ptr %8, align 8, !tbaa !12
  %19 = getelementptr inbounds nuw %"class.dmlc::io::InputSplitBase", ptr %15, i32 0, i32 13
  %20 = call noundef i64 @_ZNKSt7__cxx1112basic_stringIcSt11char_traitsIcESaIcEE6lengthEv(ptr noundef nonnull align 8 dereferenceable(32) %19) #3
  %21 = icmp ule i64 %18, %20
  br i1 %21, label %22, label %24

22:                                               ; preds = %3
  %23 = load ptr, ptr %7, align 8, !tbaa !77
  store i64 0, ptr %23, align 8, !tbaa !12
  store i1 true, ptr %4, align 1
  store i32 1, ptr %9, align 4
  br label %108

24:                                               ; preds = %3
  %25 = getelementptr inbounds nuw %"class.dmlc::io::InputSplitBase", ptr %15, i32 0, i32 13
  %26 = call noundef i64 @_ZNKSt7__cxx1112basic_stringIcSt11char_traitsIcESaIcEE6lengthEv(ptr noundef nonnull align 8 dereferenceable(32) %25) #3
  %27 = icmp ne i64 %26, 0
  br i1 %27, label %28, label %34

28:                                               ; preds = %24
  %29 = load ptr, ptr %6, align 8, !tbaa !132
  %30 = getelementptr inbounds nuw %"class.dmlc::io::InputSplitBase", ptr %15, i32 0, i32 13
  %31 = call noundef ptr @_ZN4dmlc8BeginPtrERNSt7__cxx1112basic_stringIcSt11char_traitsIcESaIcEEE(ptr noundef nonnull align 8 dereferenceable(32) %30)
  %32 = getelementptr inbounds nuw %"class.dmlc::io::InputSplitBase", ptr %15, i32 0, i32 13
  %33 = call noundef i64 @_ZNKSt7__cxx1112basic_stringIcSt11char_traitsIcESaIcEE6lengthEv(ptr noundef nonnull align 8 dereferenceable(32) %32) #3
  call void @llvm.memcpy.p0.p0.i64(ptr align 1 %29, ptr align 1 %31, i64 %33, i1 false)
  br label %34

34:                                               ; preds = %28, %24
  call void @llvm.lifetime.start.p0(i64 8, ptr %10) #3
  %35 = getelementptr inbounds nuw %"class.dmlc::io::InputSplitBase", ptr %15, i32 0, i32 13
  %36 = call noundef i64 @_ZNKSt7__cxx1112basic_stringIcSt11char_traitsIcESaIcEE6lengthEv(ptr noundef nonnull align 8 dereferenceable(32) %35) #3
  store i64 %36, ptr %10, align 8, !tbaa !12
  %37 = getelementptr inbounds nuw %"class.dmlc::io::InputSplitBase", ptr %15, i32 0, i32 13
  call void @_ZNSt7__cxx1112basic_stringIcSt11char_traitsIcESaIcEE6resizeEm(ptr noundef nonnull align 8 dereferenceable(32) %37, i64 noundef 0)
  call void @llvm.lifetime.start.p0(i64 8, ptr %11) #3
  %38 = load ptr, ptr %6, align 8, !tbaa !132
  %39 = load i64, ptr %10, align 8, !tbaa !12
  %40 = getelementptr inbounds nuw i8, ptr %38, i64 %39
  %41 = load i64, ptr %8, align 8, !tbaa !12
  %42 = load i64, ptr %10, align 8, !tbaa !12
  %43 = sub i64 %41, %42
  %44 = call noundef i64 @_ZN4dmlc2io14InputSplitBase4ReadEPvm(ptr noundef nonnull align 8 dereferenceable(200) %15, ptr noundef %40, i64 noundef %43)
  store i64 %44, ptr %11, align 8, !tbaa !12
  %45 = load i64, ptr %10, align 8, !tbaa !12
  %46 = load i64, ptr %11, align 8, !tbaa !12
  %47 = add i64 %46, %45
  store i64 %47, ptr %11, align 8, !tbaa !12
  %48 = load i64, ptr %11, align 8, !tbaa !12
  %49 = icmp eq i64 %48, 0
  br i1 %49, label %50, label %51

50:                                               ; preds = %34
  store i1 false, ptr %4, align 1
  store i32 1, ptr %9, align 4
  br label %107

51:                                               ; preds = %34
  %52 = load ptr, ptr %15, align 8, !tbaa !51
  %53 = getelementptr inbounds ptr, ptr %52, i64 11
  %54 = load ptr, ptr %53, align 8
  %55 = call noundef zeroext i1 %54(ptr noundef nonnull align 8 dereferenceable(200) %15)
  br i1 %55, label %56, label %68

56:                                               ; preds = %51
  %57 = load i64, ptr %11, align 8, !tbaa !12
  %58 = load i64, ptr %10, align 8, !tbaa !12
  %59 = icmp eq i64 %57, %58
  br i1 %59, label %60, label %67

60:                                               ; preds = %56
  call void @llvm.lifetime.start.p0(i64 8, ptr %12) #3
  %61 = load ptr, ptr %6, align 8, !tbaa !132
  store ptr %61, ptr %12, align 8, !tbaa !10
  %62 = load ptr, ptr %12, align 8, !tbaa !10
  %63 = load i64, ptr %11, align 8, !tbaa !12
  %64 = getelementptr inbounds nuw i8, ptr %62, i64 %63
  store i8 10, ptr %64, align 1, !tbaa !88
  %65 = load i64, ptr %11, align 8, !tbaa !12
  %66 = add i64 %65, 1
  store i64 %66, ptr %11, align 8, !tbaa !12
  call void @llvm.lifetime.end.p0(i64 8, ptr %12) #3
  br label %67

67:                                               ; preds = %60, %56
  br label %76

68:                                               ; preds = %51
  %69 = load i64, ptr %11, align 8, !tbaa !12
  %70 = load i64, ptr %8, align 8, !tbaa !12
  %71 = icmp ne i64 %69, %70
  br i1 %71, label %72, label %75

72:                                               ; preds = %68
  %73 = load i64, ptr %11, align 8, !tbaa !12
  %74 = load ptr, ptr %7, align 8, !tbaa !77
  store i64 %73, ptr %74, align 8, !tbaa !12
  store i1 true, ptr %4, align 1
  store i32 1, ptr %9, align 4
  br label %107

75:                                               ; preds = %68
  br label %76

76:                                               ; preds = %75, %67
  call void @llvm.lifetime.start.p0(i64 8, ptr %13) #3
  %77 = load ptr, ptr %6, align 8, !tbaa !132
  store ptr %77, ptr %13, align 8, !tbaa !10
  call void @llvm.lifetime.start.p0(i64 8, ptr %14) #3
  %78 = load ptr, ptr %13, align 8, !tbaa !10
  %79 = load ptr, ptr %13, align 8, !tbaa !10
  %80 = load i64, ptr %11, align 8, !tbaa !12
  %81 = getelementptr inbounds nuw i8, ptr %79, i64 %80
  %82 = load ptr, ptr %15, align 8, !tbaa !51
  %83 = getelementptr inbounds ptr, ptr %82, i64 15
  %84 = load ptr, ptr %83, align 8
  %85 = call noundef ptr %84(ptr noundef nonnull align 8 dereferenceable(200) %15, ptr noundef %78, ptr noundef %81)
  store ptr %85, ptr %14, align 8, !tbaa !10
  %86 = load ptr, ptr %14, align 8, !tbaa !10
  %87 = load ptr, ptr %13, align 8, !tbaa !10
  %88 = ptrtoint ptr %86 to i64
  %89 = ptrtoint ptr %87 to i64
  %90 = sub i64 %88, %89
  %91 = load ptr, ptr %7, align 8, !tbaa !77
  store i64 %90, ptr %91, align 8, !tbaa !12
  %92 = getelementptr inbounds nuw %"class.dmlc::io::InputSplitBase", ptr %15, i32 0, i32 13
  %93 = load i64, ptr %11, align 8, !tbaa !12
  %94 = load ptr, ptr %7, align 8, !tbaa !77
  %95 = load i64, ptr %94, align 8, !tbaa !12
  %96 = sub i64 %93, %95
  call void @_ZNSt7__cxx1112basic_stringIcSt11char_traitsIcESaIcEE6resizeEm(ptr noundef nonnull align 8 dereferenceable(32) %92, i64 noundef %96)
  %97 = getelementptr inbounds nuw %"class.dmlc::io::InputSplitBase", ptr %15, i32 0, i32 13
  %98 = call noundef i64 @_ZNKSt7__cxx1112basic_stringIcSt11char_traitsIcESaIcEE6lengthEv(ptr noundef nonnull align 8 dereferenceable(32) %97) #3
  %99 = icmp ne i64 %98, 0
  br i1 %99, label %100, label %106

100:                                              ; preds = %76
  %101 = getelementptr inbounds nuw %"class.dmlc::io::InputSplitBase", ptr %15, i32 0, i32 13
  %102 = call noundef ptr @_ZN4dmlc8BeginPtrERNSt7__cxx1112basic_stringIcSt11char_traitsIcESaIcEEE(ptr noundef nonnull align 8 dereferenceable(32) %101)
  %103 = load ptr, ptr %14, align 8, !tbaa !10
  %104 = getelementptr inbounds nuw %"class.dmlc::io::InputSplitBase", ptr %15, i32 0, i32 13
  %105 = call noundef i64 @_ZNKSt7__cxx1112basic_stringIcSt11char_traitsIcESaIcEE6lengthEv(ptr noundef nonnull align 8 dereferenceable(32) %104) #3
  call void @llvm.memcpy.p0.p0.i64(ptr align 1 %102, ptr align 1 %103, i64 %105, i1 false)
  br label %106

106:                                              ; preds = %100, %76
  store i1 true, ptr %4, align 1
  store i32 1, ptr %9, align 4
  call void @llvm.lifetime.end.p0(i64 8, ptr %14) #3
  call void @llvm.lifetime.end.p0(i64 8, ptr %13) #3
  br label %107

107:                                              ; preds = %106, %72, %50
  call void @llvm.lifetime.end.p0(i64 8, ptr %11) #3
  call void @llvm.lifetime.end.p0(i64 8, ptr %10) #3
  br label %108

108:                                              ; preds = %107, %22
  call void @llvm.lifetime.end.p0(i64 8, ptr %8) #3
  %109 = load i1, ptr %4, align 1
  ret i1 %109
}