; Function Attrs: mustprogress uwtable
define noundef zeroext i1 @_ZN4dmlc2io14InputSplitBase9ReadChunkEPvPm(ptr noundef nonnull align 8 dereferenceable(200) %0, ptr noundef %1, ptr noundef captures(none) %2) unnamed_addr #3 align 2 {
  %4 = load i64, ptr %2, align 8, !tbaa !32
  %5 = getelementptr inbounds nuw i8, ptr %0, i64 168
  %6 = getelementptr inbounds nuw i8, ptr %0, i64 176
  %7 = load i64, ptr %6, align 8, !tbaa !35
  %.not = icmp ugt i64 %4, %7
  br i1 %.not, label %9, label %8

8:                                                ; preds = %3
  store i64 0, ptr %2, align 8, !tbaa !32
  br label %43

9:                                                ; preds = %3
  %.not35 = icmp eq i64 %7, 0
  br i1 %.not35, label %12, label %10

10:                                               ; preds = %9
  %11 = load ptr, ptr %5, align 8
  tail call void @llvm.memcpy.p0.p0.i64(ptr align 1 %1, ptr align 1 %11, i64 %7, i1 false)
  %.pre = load i64, ptr %6, align 8, !tbaa !35
  br label %12

12:                                               ; preds = %10, %9
  %13 = phi i64 [ %.pre, %10 ], [ 0, %9 ]
  tail call void @_ZNSt7__cxx1112basic_stringIcSt11char_traitsIcESaIcEE6resizeEmc(ptr noundef nonnull align 8 dereferenceable(32) %5, i64 noundef 0, i8 noundef signext 0)
  %14 = getelementptr inbounds nuw i8, ptr %1, i64 %13
  %15 = sub i64 %4, %13
  %16 = tail call noundef i64 @_ZN4dmlc2io14InputSplitBase4ReadEPvm(ptr noundef nonnull align 8 dereferenceable(200) %0, ptr noundef %14, i64 noundef %15)
  %17 = add i64 %16, %13
  %.not39 = icmp eq i64 %17, 0
  br i1 %.not39, label %43, label %18

18:                                               ; preds = %12
  %19 = load ptr, ptr %0, align 8, !tbaa !53
  %20 = getelementptr inbounds nuw i8, ptr %19, i64 88
  %21 = load ptr, ptr %20, align 8
  %22 = tail call noundef zeroext i1 %21(ptr noundef nonnull align 8 dereferenceable(200) %0)
  br i1 %22, label %23, label %28

23:                                               ; preds = %18
  %24 = icmp eq i64 %16, 0
  br i1 %24, label %25, label %30

25:                                               ; preds = %23
  %26 = getelementptr inbounds nuw i8, ptr %1, i64 %17
  store i8 10, ptr %26, align 1, !tbaa !34
  %27 = add i64 %17, 1
  br label %30

28:                                               ; preds = %18
  %.not36 = icmp eq i64 %17, %4
  br i1 %.not36, label %30, label %29

29:                                               ; preds = %28
  store i64 %17, ptr %2, align 8, !tbaa !32
  br label %43

30:                                               ; preds = %28, %23, %25
  %.032 = phi i64 [ %27, %25 ], [ %17, %23 ], [ %4, %28 ]
  %31 = getelementptr inbounds nuw i8, ptr %1, i64 %.032
  %32 = load ptr, ptr %0, align 8, !tbaa !53
  %33 = getelementptr inbounds nuw i8, ptr %32, i64 120
  %34 = load ptr, ptr %33, align 8
  %35 = tail call noundef ptr %34(ptr noundef nonnull align 8 dereferenceable(200) %0, ptr noundef %1, ptr noundef %31)
  %36 = ptrtoint ptr %35 to i64
  %37 = ptrtoint ptr %1 to i64
  %38 = sub i64 %36, %37
  store i64 %38, ptr %2, align 8, !tbaa !32
  %39 = sub i64 %.032, %38
  tail call void @_ZNSt7__cxx1112basic_stringIcSt11char_traitsIcESaIcEE6resizeEmc(ptr noundef nonnull align 8 dereferenceable(32) %5, i64 noundef %39, i8 noundef signext 0)
  %40 = load i64, ptr %6, align 8, !tbaa !35
  %.not37 = icmp eq i64 %40, 0
  br i1 %.not37, label %43, label %41

41:                                               ; preds = %30
  %42 = load ptr, ptr %5, align 8
  tail call void @llvm.memcpy.p0.p0.i64(ptr align 1 %42, ptr align 1 %35, i64 %40, i1 false)
  br label %43

43:                                               ; preds = %29, %12, %41, %30, %8
  %.0 = phi i1 [ true, %8 ], [ true, %30 ], [ true, %41 ], [ false, %12 ], [ true, %29 ]
  ret i1 %.0
}